; Function Attrs: mustprogress nounwind uwtable
define internal fastcc void @_ZN12_GLOBAL__N_112label_hasherD2Ev(ptr %this.0.val) unnamed_addr #5 align 2 personality ptr @__gxx_personality_v0 {
entry:
  %tobool.not.i.i.i = icmp eq ptr %this.0.val, null
  br i1 %tobool.not.i.i.i, label %_ZN7svectorIajED2Ev.exit, label %if.then.i.i.i

if.then.i.i.i:                                    ; preds = %entry
  %add.ptr.i.i.i.i = getelementptr inbounds i8, ptr %this.0.val, i64 -8
  invoke void @_ZN6memory10deallocateEPv(ptr noundef nonnull %add.ptr.i.i.i.i)
          to label %_ZN7svectorIajED2Ev.exit unwind label %terminate.lpad.i.i

terminate.lpad.i.i:                               ; preds = %if.then.i.i.i
  %0 = landingpad { ptr, i32 }
          catch ptr null
  %1 = extractvalue { ptr, i32 } %0, 0
  tail call void @__clang_call_terminate(ptr %1) #22
  unreachable

_ZN7svectorIajED2Ev.exit:                         ; preds = %entry, %if.then.i.i.i
  ret void
}